; Function Attrs: mustprogress nounwind uwtable
define noundef zeroext i1 @_ZN32pxrInternal_v0_24__pxrReserved__28UsdUtils_LocalizationContext22_ShouldFilterAssetPathERKNSt7__cxx1112basic_stringIcSt11char_traitsIcESaIcEEEb(ptr nocapture noundef nonnull readonly align 8 dereferenceable(184) %0, ptr noundef nonnull align 8 dereferenceable(32) %1, i1 noundef zeroext %2) local_unnamed_addr #3 align 2 {
  br i1 %2, label %4, label %11

4:                                                ; preds = %3
  %5 = getelementptr inbounds nuw i8, ptr %0, i64 125
  %6 = load i8, ptr %5, align 1
  %7 = trunc i8 %6 to i1
  br i1 %7, label %8, label %11

8:                                                ; preds = %4
  %9 = tail call noundef i32 @_ZNKSt7__cxx1112basic_stringIcSt11char_traitsIcESaIcEE7compareEPKc(ptr noundef nonnull align 8 dereferenceable(32) %1, ptr noundef nonnull @.str.7) #18
  %10 = icmp eq i32 %9, 0
  br label %11

11:                                               ; preds = %3, %4, %8
  %.0 = phi i1 [ %10, %8 ], [ false, %4 ], [ false, %3 ]
  ret i1 %.0
}